target datalayout = "e-m:e-p270:32:32-p271:32:32-p272:64:64-i64:64-i128:128-f80:128-n8:16:32:64-S128"
target triple = "x86_64-pc-linux-gnu"

%struct.nstime_t = type { i64 }
%struct.tsd_s = type { i8, i8, i8, i64, i64, i64, i64, i64, i64, i64, i64, i64, i64, i64, i64, i64, ptr, i64, i64, i64, ptr, ptr, %struct.ticker_geom_s, i8, %struct.tsd_binshards_s, %struct.tsd_link_t, i8, %struct.peak_s, %struct.activity_callback_thunk_s, %struct.tcache_slow_s, %struct.rtree_ctx_s, %struct.atomic_u8_t, i64, i64, i64, i64, %struct.tcache_s, %struct.witness_tsd_s }
%struct.ticker_geom_s = type { i32, i32 }
%struct.tsd_binshards_s = type { [36 x i8] }
%struct.tsd_link_t = type { ptr, ptr }
%struct.peak_s = type { i64, i64 }
%struct.activity_callback_thunk_s = type { ptr, ptr }
%struct.tcache_slow_s = type { %struct.anon.3, %struct.cache_bin_array_descriptor_s, ptr, i32, %struct.nstime_t, i32, i32, i32, [36 x %struct.cache_bin_fill_ctl_s], [36 x i8], [36 x i8], ptr, ptr }
%struct.anon.3 = type { ptr, ptr }
%struct.cache_bin_array_descriptor_s = type { %struct.anon.4, ptr }
%struct.anon.4 = type { ptr, ptr }
%struct.cache_bin_fill_ctl_s = type { i8, i8 }
%struct.rtree_ctx_s = type { [16 x %struct.rtree_ctx_cache_elm_s], [8 x %struct.rtree_ctx_cache_elm_s] }
%struct.rtree_ctx_cache_elm_s = type { i64, ptr }
%struct.atomic_u8_t = type { i8 }
%struct.tcache_s = type { ptr, [73 x %struct.cache_bin_s] }
%struct.cache_bin_s = type { ptr, %struct.cache_bin_stats_s, i16, i16, i16, %struct.cache_bin_info_s }
%struct.cache_bin_stats_s = type { i64 }
%struct.cache_bin_info_s = type { i16 }
%struct.witness_tsd_s = type { %struct.witness_list_t, i8 }
%struct.witness_list_t = type { ptr }

@je_ncpus = external global i32, align 4
@je_opt_narenas = external global i32, align 4

; Function Attrs: alwaysinline nounwind uwtable
define internal ptr @tsd_tcache_enabledp_get_unsafe(ptr noundef %0) #2 {
  %2 = alloca ptr, align 8
  store ptr %0, ptr %2, align 8, !tbaa !4
  %3 = load ptr, ptr %2, align 8, !tbaa !4
  %4 = getelementptr inbounds nuw %struct.tsd_s, ptr %3, i32 0, i32 0
  ret ptr %4
}

; Function Attrs: alwaysinline nounwind uwtable
define internal zeroext i8 @tsd_state_get(ptr noundef %0) #2 {
  %2 = alloca ptr, align 8
  store ptr %0, ptr %2, align 8, !tbaa !4
  %3 = load ptr, ptr %2, align 8, !tbaa !4
  %4 = getelementptr inbounds nuw %struct.tsd_s, ptr %3, i32 0, i32 31
  %5 = load i8, ptr %4, align 8, !tbaa !56
  ret i8 %5
}

; Function Attrs: alwaysinline nounwind uwtable
define internal ptr @tsd_tcache_enabledp_get(ptr noundef %0) #2 {
  %2 = alloca ptr, align 8
  %3 = alloca i8, align 1
  store ptr %0, ptr %2, align 8, !tbaa !4
  call void @llvm.lifetime.start.p0(i64 1, ptr %3) #13
  %4 = load ptr, ptr %2, align 8, !tbaa !4
  %5 = call zeroext i8 @tsd_state_get(ptr noundef %4)
  store i8 %5, ptr %3, align 1, !tbaa !56
  br label %6

6:                                                ; preds = %1
  br label %7

7:                                                ; preds = %6
  br label %8

8:                                                ; preds = %7
  %9 = load ptr, ptr %2, align 8, !tbaa !4
  %10 = call ptr @tsd_tcache_enabledp_get_unsafe(ptr noundef %9)
  call void @llvm.lifetime.end.p0(i64 1, ptr %3) #13
  ret ptr %10
}

; Function Attrs: alwaysinline nounwind uwtable
define internal zeroext i1 @tsd_tcache_enabled_get(ptr noundef %0) #2 {
  %2 = alloca ptr, align 8
  store ptr %0, ptr %2, align 8, !tbaa !4
  %3 = load ptr, ptr %2, align 8, !tbaa !4
  %4 = call ptr @tsd_tcache_enabledp_get(ptr noundef %3)
  %5 = load i8, ptr %4, align 1, !tbaa !16, !range !18, !noundef !19
  %6 = trunc i8 %5 to i1
  ret i1 %6
}

; Function Attrs: alwaysinline nounwind uwtable
define internal ptr @tsd_tsdn(ptr noundef %0) #2 {
  %2 = alloca ptr, align 8
  store ptr %0, ptr %2, align 8, !tbaa !4
  %3 = load ptr, ptr %2, align 8, !tbaa !4
  ret ptr %3
}

; Function Attrs: alwaysinline nounwind uwtable
define internal zeroext i1 @tcache_available(ptr noundef %0) #2 {
  %2 = alloca i1, align 1
  %3 = alloca ptr, align 8
  store ptr %0, ptr %3, align 8, !tbaa !4
  %4 = load ptr, ptr %3, align 8, !tbaa !4
  %5 = call zeroext i1 @tsd_tcache_enabled_get(ptr noundef %4)
  %6 = xor i1 %5, true
  %7 = xor i1 %6, true
  %8 = zext i1 %7 to i32
  %9 = sext i32 %8 to i64
  %10 = call i64 @llvm.expect.i64(i64 %9, i64 1)
  %11 = icmp ne i64 %10, 0
  br i1 %11, label %12, label %13

12:                                               ; preds = %1
  store i1 true, ptr %2, align 1
  br label %14

13:                                               ; preds = %1
  store i1 false, ptr %2, align 1
  br label %14

14:                                               ; preds = %13, %12
  %15 = load i1, ptr %2, align 1
  ret i1 %15
}

; Function Attrs: nounwind uwtable
define internal i32 @thread_idle_ctl(ptr noundef %0, ptr noundef %1, i64 noundef %2, ptr noundef %3, ptr noundef %4, ptr noundef %5, i64 noundef %6) #0 {
  %8 = alloca ptr, align 8
  %9 = alloca ptr, align 8
  %10 = alloca i64, align 8
  %11 = alloca ptr, align 8
  %12 = alloca ptr, align 8
  %13 = alloca ptr, align 8
  %14 = alloca i64, align 8
  %15 = alloca i32, align 4
  %16 = alloca ptr, align 8
  store ptr %0, ptr %8, align 8, !tbaa !4
  store ptr %1, ptr %9, align 8, !tbaa !12
  store i64 %2, ptr %10, align 8, !tbaa !14
  store ptr %3, ptr %11, align 8, !tbaa !11
  store ptr %4, ptr %12, align 8, !tbaa !12
  store ptr %5, ptr %13, align 8, !tbaa !11
  store i64 %6, ptr %14, align 8, !tbaa !14
  call void @llvm.lifetime.start.p0(i64 4, ptr %15) #13
  br label %17

17:                                               ; preds = %7
  %18 = load ptr, ptr %11, align 8, !tbaa !11
  %19 = icmp ne ptr %18, null
  br i1 %19, label %29, label %20

20:                                               ; preds = %17
  %21 = load ptr, ptr %12, align 8, !tbaa !12
  %22 = icmp ne ptr %21, null
  br i1 %22, label %29, label %23

23:                                               ; preds = %20
  %24 = load ptr, ptr %13, align 8, !tbaa !11
  %25 = icmp ne ptr %24, null
  br i1 %25, label %29, label %26

26:                                               ; preds = %23
  %27 = load i64, ptr %14, align 8, !tbaa !14
  %28 = icmp ne i64 %27, 0
  br i1 %28, label %29, label %30

29:                                               ; preds = %26, %23, %20, %17
  store i32 1, ptr %15, align 4, !tbaa !20
  br label %53

30:                                               ; preds = %26
  br label %31

31:                                               ; preds = %30
  br label %32

32:                                               ; preds = %31
  %33 = load ptr, ptr %8, align 8, !tbaa !4
  %34 = call zeroext i1 @tcache_available(ptr noundef %33)
  br i1 %34, label %35, label %37

35:                                               ; preds = %32
  %36 = load ptr, ptr %8, align 8, !tbaa !4
  call void @je_tcache_flush(ptr noundef %36)
  br label %37

37:                                               ; preds = %35, %32
  %38 = load i32, ptr @je_opt_narenas, align 4, !tbaa !20
  %39 = load i32, ptr @je_ncpus, align 4, !tbaa !20
  %40 = mul i32 %39, 2
  %41 = icmp ugt i32 %38, %40
  br i1 %41, label %42, label %52

42:                                               ; preds = %37
  call void @llvm.lifetime.start.p0(i64 8, ptr %16) #13
  %43 = load ptr, ptr %8, align 8, !tbaa !4
  %44 = call ptr @arena_choose(ptr noundef %43, ptr noundef null)
  store ptr %44, ptr %16, align 8, !tbaa !72
  %45 = load ptr, ptr %16, align 8, !tbaa !72
  %46 = icmp ne ptr %45, null
  br i1 %46, label %47, label %51

47:                                               ; preds = %42
  %48 = load ptr, ptr %8, align 8, !tbaa !4
  %49 = call ptr @tsd_tsdn(ptr noundef %48)
  %50 = load ptr, ptr %16, align 8, !tbaa !72
  call void @je_arena_decay(ptr noundef %49, ptr noundef %50, i1 noundef zeroext false, i1 noundef zeroext true)
  br label %51

51:                                               ; preds = %47, %42
  call void @llvm.lifetime.end.p0(i64 8, ptr %16) #13
  br label %52

52:                                               ; preds = %51, %37
  store i32 0, ptr %15, align 4, !tbaa !20
  br label %53

53:                                               ; preds = %52, %29
  %54 = load i32, ptr %15, align 4, !tbaa !20
  call void @llvm.lifetime.end.p0(i64 4, ptr %15) #13
  ret i32 %54
}