; Function Attrs: nounwind uwtable
define internal range(i32 0, 2) i32 @thread_idle_ctl(ptr noundef %0, ptr readnone captures(none) %1, i64 %2, ptr noundef readnone captures(address_is_null) %3, ptr noundef readnone captures(address_is_null) %4, ptr noundef readnone captures(address_is_null) %5, i64 noundef %6) #0 {
  %8 = icmp ne ptr %3, null
  %9 = icmp ne ptr %4, null
  %or.cond = or i1 %8, %9
  %10 = icmp ne ptr %5, null
  %or.cond3 = or i1 %or.cond, %10
  %11 = icmp ne i64 %6, 0
  %or.cond5 = or i1 %or.cond3, %11
  br i1 %or.cond5, label %24, label %12

12:                                               ; preds = %7
  %13 = load i8, ptr %0, align 1, !tbaa !146, !range !48, !noundef !49
  %14 = trunc nuw i8 %13 to i1
  br i1 %14, label %15, label %16

15:                                               ; preds = %12
  tail call void @je_tcache_flush(ptr noundef nonnull %0) #15
  br label %16

16:                                               ; preds = %15, %12
  %17 = load i32, ptr @je_opt_narenas, align 4, !tbaa !96
  %18 = load i32, ptr @je_ncpus, align 4, !tbaa !96
  %19 = shl i32 %18, 1
  %20 = icmp ugt i32 %17, %19
  br i1 %20, label %21, label %24

21:                                               ; preds = %16
  %22 = tail call fastcc ptr @arena_choose(ptr noundef nonnull %0)
  %.not = icmp eq ptr %22, null
  br i1 %.not, label %24, label %23

23:                                               ; preds = %21
  tail call void @je_arena_decay(ptr noundef nonnull %0, ptr noundef nonnull %22, i1 noundef zeroext false, i1 noundef zeroext true) #15
  br label %24

24:                                               ; preds = %16, %23, %21, %7
  %.0 = phi i32 [ 1, %7 ], [ 0, %21 ], [ 0, %23 ], [ 0, %16 ]
  ret i32 %.0
}